target datalayout = "e-m:e-p270:32:32-p271:32:32-p272:64:64-i64:64-i128:128-f80:128-n8:16:32:64-S128"
target triple = "x86_64-pc-linux-gnu"

%struct._zend_executor_globals = type { %struct._zval_struct, %struct._zval_struct, [32 x ptr], ptr, ptr, %struct._zend_array, %struct._zend_array, ptr, i32, i32, ptr, ptr, ptr, ptr, ptr, ptr, i64, ptr, ptr, i32, i32, i64, i32, i32, i32, i8, i8, %struct.zend_atomic_bool_s, %struct.zend_atomic_bool_s, ptr, i64, ptr, ptr, %struct._zend_array, %struct._zend_array, i32, i8, %struct._zval_struct, %struct._zval_struct, %struct._zend_stack, %struct._zend_stack, %struct._zend_stack, ptr, i32, i32, i64, ptr, ptr, ptr, %struct._zend_objects_store, ptr, ptr, ptr, [3 x %struct._zend_op], ptr, i8, i8, i64, i32, i32, ptr, [16 x %struct._HashTableIterator], ptr, %union._zend_function, %struct._zend_op, %struct._zend_array, i64, %struct.zend_get_gc_buffer, ptr, ptr, ptr, i64, i8, i32, ptr, ptr, i64, %struct._zend_call_stack, i64, i64, [6 x ptr] }
%struct.zend_atomic_bool_s = type { i8 }
%struct._zval_struct = type { %union._zend_value, %union.anon, %union.anon.2 }
%union._zend_value = type { i64 }
%union.anon = type { i32 }
%union.anon.2 = type { i32 }
%struct._zend_stack = type { i32, i32, i32, ptr }
%struct._zend_objects_store = type { ptr, i32, i32, i32 }
%struct._HashTableIterator = type { ptr, i32, i32 }
%union._zend_function = type { %struct._zend_op_array }
%struct._zend_op_array = type { i8, [3 x i8], i32, ptr, ptr, ptr, i32, i32, ptr, ptr, ptr, ptr, i32, i32, i32, i32, ptr, ptr, ptr, ptr, ptr, i32, i32, ptr, ptr, ptr, i32, i32, i32, i32, ptr, ptr, [6 x ptr] }
%struct._zend_op = type { ptr, %union._znode_op, %union._znode_op, %union._znode_op, i32, i32, i8, i8, i8, i8 }
%union._znode_op = type { i32 }
%struct._zend_array = type { %struct._zend_refcounted_h, %union.anon.4, i32, %union.anon.6, i32, i32, i32, i32, i64, ptr }
%struct._zend_refcounted_h = type { i32, %union.anon.3 }
%union.anon.3 = type { i32 }
%union.anon.4 = type { i32 }
%union.anon.6 = type { ptr }
%struct.zend_get_gc_buffer = type { ptr, ptr, ptr }
%struct._zend_call_stack = type { ptr, i64 }
%struct.php_user_stream_wrapper = type { %struct._php_stream_wrapper, ptr, ptr, ptr }
%struct._php_stream_wrapper = type { ptr, ptr, i32 }
%struct._zend_execute_data = type { ptr, ptr, ptr, ptr, %struct._zval_struct, ptr, ptr, ptr, ptr }
%struct._zend_string = type { %struct._zend_refcounted_h, i64, i64, [1 x i8] }

@executor_globals = external global %struct._zend_executor_globals, align 8
@.str.4 = private unnamed_addr constant [2 x i8] c"S\00", align 1
@.str.5 = private unnamed_addr constant [36 x i8] c"Unable to unregister protocol %s://\00", align 1

; Function Attrs: nounwind uwtable
define hidden void @zif_stream_wrapper_unregister(ptr noundef %0, ptr noundef %1) #0 {
  %3 = alloca ptr, align 8
  %4 = alloca ptr, align 8
  %5 = alloca ptr, align 8
  %6 = alloca ptr, align 8
  %7 = alloca ptr, align 8
  %8 = alloca ptr, align 8
  %9 = alloca ptr, align 8
  %10 = alloca ptr, align 8
  %11 = alloca ptr, align 8
  store ptr %0, ptr %7, align 8
  store ptr %1, ptr %8, align 8
  %12 = load ptr, ptr %7, align 8
  %13 = getelementptr inbounds %struct._zend_execute_data, ptr %12, i32 0, i32 4
  %14 = getelementptr inbounds %struct._zval_struct, ptr %13, i32 0, i32 2
  %15 = load i32, ptr %14, align 4
  %16 = call i32 (i32, ptr, ...) @zend_parse_parameters(i32 noundef %15, ptr noundef @.str.4, ptr noundef %9)
  %17 = icmp eq i32 %16, -1
  br i1 %17, label %18, label %23

18:                                               ; preds = %2
  br label %19

19:                                               ; preds = %18
  %20 = load ptr, ptr getelementptr inbounds (%struct._zend_executor_globals, ptr @executor_globals, i32 0, i32 50), align 8
  %21 = icmp ne ptr %20, null
  call void @llvm.assume(i1 %21)
  br label %72

22:                                               ; No predecessors!
  br label %23

23:                                               ; preds = %22, %2
  %24 = call ptr @_php_stream_get_url_stream_wrappers_hash()
  %25 = load ptr, ptr %9, align 8
  store ptr %24, ptr %4, align 8
  store ptr %25, ptr %5, align 8
  %26 = load ptr, ptr %4, align 8
  %27 = load ptr, ptr %5, align 8
  %28 = call ptr @zend_hash_find(ptr noundef %26, ptr noundef %27) #12
  store ptr %28, ptr %6, align 8
  %29 = load ptr, ptr %6, align 8
  %30 = icmp ne ptr %29, null
  br i1 %30, label %31, label %37

31:                                               ; preds = %23
  %32 = load ptr, ptr %6, align 8
  %33 = load ptr, ptr %32, align 8
  %34 = icmp ne ptr %33, null
  call void @llvm.assume(i1 %34)
  %35 = load ptr, ptr %6, align 8
  %36 = load ptr, ptr %35, align 8
  store ptr %36, ptr %3, align 8
  br label %38

37:                                               ; preds = %23
  store ptr null, ptr %3, align 8
  br label %38

38:                                               ; preds = %37, %31
  %39 = load ptr, ptr %3, align 8
  store ptr %39, ptr %10, align 8
  %40 = load ptr, ptr %9, align 8
  %41 = call i32 @php_unregister_url_stream_wrapper_volatile(ptr noundef %40)
  %42 = icmp eq i32 %41, -1
  br i1 %42, label %43, label %53

43:                                               ; preds = %38
  %44 = load ptr, ptr %9, align 8
  %45 = getelementptr inbounds %struct._zend_string, ptr %44, i32 0, i32 3
  %46 = getelementptr inbounds [1 x i8], ptr %45, i64 0, i64 0
  call void (ptr, i32, ptr, ...) @php_error_docref(ptr noundef null, i32 noundef 2, ptr noundef @.str.5, ptr noundef %46)
  br label %47

47:                                               ; preds = %43
  br label %48

48:                                               ; preds = %47
  %49 = load ptr, ptr %8, align 8
  %50 = getelementptr inbounds %struct._zval_struct, ptr %49, i32 0, i32 1
  store i32 2, ptr %50, align 8
  br label %51

51:                                               ; preds = %48
  br label %72

52:                                               ; No predecessors!
  br label %53

53:                                               ; preds = %52, %38
  %54 = load ptr, ptr %10, align 8
  %55 = icmp ne ptr %54, null
  call void @llvm.assume(i1 %55)
  %56 = load ptr, ptr %10, align 8
  %57 = getelementptr inbounds %struct._php_stream_wrapper, ptr %56, i32 0, i32 0
  %58 = load ptr, ptr %57, align 8
  %59 = icmp eq ptr %58, @user_stream_wops
  br i1 %59, label %60, label %66

60:                                               ; preds = %53
  %61 = load ptr, ptr %10, align 8
  store ptr %61, ptr %11, align 8
  %62 = load ptr, ptr %11, align 8
  %63 = getelementptr inbounds %struct.php_user_stream_wrapper, ptr %62, i32 0, i32 3
  %64 = load ptr, ptr %63, align 8
  %65 = call i32 @zend_list_delete(ptr noundef %64)
  br label %66

66:                                               ; preds = %60, %53
  br label %67

67:                                               ; preds = %66
  br label %68

68:                                               ; preds = %67
  %69 = load ptr, ptr %8, align 8
  %70 = getelementptr inbounds %struct._zval_struct, ptr %69, i32 0, i32 1
  store i32 3, ptr %70, align 8
  br label %71

71:                                               ; preds = %68
  br label %72

72:                                               ; preds = %71, %51, %19
  ret void
}