; Function Attrs: nounwind uwtable
define hidden void @zif_stream_wrapper_unregister(ptr nocapture noundef readonly %0, ptr nocapture noundef writeonly %1) local_unnamed_addr #0 {
  %3 = alloca ptr, align 8
  %4 = getelementptr inbounds i8, ptr %0, i64 44
  %5 = load i32, ptr %4, align 4
  %6 = call i32 (i32, ptr, ...) @zend_parse_parameters(i32 noundef %5, ptr noundef nonnull @.str.4, ptr noundef nonnull %3) #11
  %7 = icmp eq i32 %6, -1
  br i1 %7, label %8, label %11

8:                                                ; preds = %2
  %9 = load ptr, ptr getelementptr inbounds (%struct._zend_executor_globals, ptr @executor_globals, i64 0, i32 50), align 8
  %10 = icmp ne ptr %9, null
  call void @llvm.assume(i1 %10)
  br label %35

11:                                               ; preds = %2
  %12 = call ptr @_php_stream_get_url_stream_wrappers_hash() #11
  %13 = load ptr, ptr %3, align 8
  %14 = call ptr @zend_hash_find(ptr noundef %12, ptr noundef %13) #11
  %.not = icmp eq ptr %14, null
  br i1 %.not, label %17, label %15

15:                                               ; preds = %11
  %16 = load ptr, ptr %14, align 8, !nonnull !4, !noundef !4
  br label %17

17:                                               ; preds = %11, %15
  %.0 = phi ptr [ %16, %15 ], [ null, %11 ]
  %18 = load ptr, ptr %3, align 8
  %19 = call i32 @php_unregister_url_stream_wrapper_volatile(ptr noundef %18) #11
  %20 = icmp eq i32 %19, -1
  br i1 %20, label %21, label %25

21:                                               ; preds = %17
  %22 = load ptr, ptr %3, align 8
  %23 = getelementptr inbounds i8, ptr %22, i64 24
  call void (ptr, i32, ptr, ...) @php_error_docref(ptr noundef null, i32 noundef 2, ptr noundef nonnull @.str.5, ptr noundef nonnull %23) #11
  %24 = getelementptr inbounds i8, ptr %1, i64 8
  store i32 2, ptr %24, align 8
  br label %35

25:                                               ; preds = %17
  %26 = icmp ne ptr %.0, null
  call void @llvm.assume(i1 %26)
  %27 = load ptr, ptr %.0, align 8
  %28 = icmp eq ptr %27, @user_stream_wops
  br i1 %28, label %29, label %33

29:                                               ; preds = %25
  %30 = getelementptr inbounds i8, ptr %.0, i64 40
  %31 = load ptr, ptr %30, align 8
  %32 = call i32 @zend_list_delete(ptr noundef %31) #11
  br label %33

33:                                               ; preds = %29, %25
  %34 = getelementptr inbounds i8, ptr %1, i64 8
  store i32 3, ptr %34, align 8
  br label %35

35:                                               ; preds = %33, %21, %8
  ret void
}